target datalayout = "e-m:e-p270:32:32-p271:32:32-p272:64:64-i64:64-i128:128-f80:128-n8:16:32:64-S128"
target triple = "x86_64-pc-linux-gnu"

%struct.global_State = type { ptr, ptr, i64, i64, i64, i64, %struct.stringtable, %struct.TValue, %struct.TValue, i32, [6 x i8], i8, i8, i8, i8, i8, i8, ptr, ptr, ptr, ptr, ptr, ptr, ptr, ptr, ptr, ptr, ptr, ptr, ptr, ptr, ptr, ptr, ptr, ptr, ptr, ptr, ptr, [25 x ptr], [9 x ptr], [53 x [2 x ptr]], ptr, ptr }
%struct.stringtable = type { ptr, i32, i32 }
%struct.TValue = type { %union.Value, i8 }
%union.Value = type { ptr }
%struct.lua_State = type { ptr, i8, i8, i8, i8, i16, %union.StkIdRel, ptr, ptr, %union.StkIdRel, %union.StkIdRel, ptr, %union.StkIdRel, ptr, ptr, ptr, %struct.CallInfo, ptr, i64, i32, i32, i32, i32, i32, %struct.anon.2 }
%union.StkIdRel = type { ptr }
%struct.CallInfo = type { %union.StkIdRel, %union.StkIdRel, ptr, ptr, %union.anon, %union.anon.1, i32 }
%union.anon = type { %struct.anon.0 }
%struct.anon.0 = type { ptr, i64, i64 }
%union.anon.1 = type { i32 }
%struct.anon.2 = type { i32, i32 }
%union.StackValue = type { %struct.TValue }

; Function Attrs: nounwind uwtable
define internal void @stack_init(ptr noundef %0, ptr noundef %1) #0 {
  %3 = alloca ptr, align 8
  %4 = alloca ptr, align 8
  %5 = alloca i32, align 4
  %6 = alloca ptr, align 8
  store ptr %0, ptr %3, align 8, !tbaa !22
  store ptr %1, ptr %4, align 8, !tbaa !22
  call void @llvm.lifetime.start.p0(i64 4, ptr %5) #6
  call void @llvm.lifetime.start.p0(i64 8, ptr %6) #6
  %7 = load ptr, ptr %4, align 8, !tbaa !22
  %8 = call ptr @luaM_malloc_(ptr noundef %7, i64 noundef 720, i32 noundef 0)
  %9 = load ptr, ptr %3, align 8, !tbaa !22
  %10 = getelementptr inbounds nuw %struct.lua_State, ptr %9, i32 0, i32 10
  store ptr %8, ptr %10, align 8, !tbaa !34
  %11 = load ptr, ptr %3, align 8, !tbaa !22
  %12 = getelementptr inbounds nuw %struct.lua_State, ptr %11, i32 0, i32 10
  %13 = load ptr, ptr %12, align 8, !tbaa !34
  %14 = load ptr, ptr %3, align 8, !tbaa !22
  %15 = getelementptr inbounds nuw %struct.lua_State, ptr %14, i32 0, i32 12
  store ptr %13, ptr %15, align 8, !tbaa !34
  store i32 0, ptr %5, align 4, !tbaa !54
  br label %16

16:                                               ; preds = %27, %2
  %17 = load i32, ptr %5, align 4, !tbaa !54
  %18 = icmp slt i32 %17, 45
  br i1 %18, label %19, label %30

19:                                               ; preds = %16
  %20 = load ptr, ptr %3, align 8, !tbaa !22
  %21 = getelementptr inbounds nuw %struct.lua_State, ptr %20, i32 0, i32 10
  %22 = load ptr, ptr %21, align 8, !tbaa !34
  %23 = load i32, ptr %5, align 4, !tbaa !54
  %24 = sext i32 %23 to i64
  %25 = getelementptr inbounds %union.StackValue, ptr %22, i64 %24
  %26 = getelementptr inbounds nuw %struct.TValue, ptr %25, i32 0, i32 1
  store i8 0, ptr %26, align 8, !tbaa !34
  br label %27

27:                                               ; preds = %19
  %28 = load i32, ptr %5, align 4, !tbaa !54
  %29 = add nsw i32 %28, 1
  store i32 %29, ptr %5, align 4, !tbaa !54
  br label %16

30:                                               ; preds = %16
  %31 = load ptr, ptr %3, align 8, !tbaa !22
  %32 = getelementptr inbounds nuw %struct.lua_State, ptr %31, i32 0, i32 10
  %33 = load ptr, ptr %32, align 8, !tbaa !34
  %34 = load ptr, ptr %3, align 8, !tbaa !22
  %35 = getelementptr inbounds nuw %struct.lua_State, ptr %34, i32 0, i32 6
  store ptr %33, ptr %35, align 8, !tbaa !34
  %36 = load ptr, ptr %3, align 8, !tbaa !22
  %37 = getelementptr inbounds nuw %struct.lua_State, ptr %36, i32 0, i32 10
  %38 = load ptr, ptr %37, align 8, !tbaa !34
  %39 = getelementptr inbounds %union.StackValue, ptr %38, i64 40
  %40 = load ptr, ptr %3, align 8, !tbaa !22
  %41 = getelementptr inbounds nuw %struct.lua_State, ptr %40, i32 0, i32 9
  store ptr %39, ptr %41, align 8, !tbaa !34
  %42 = load ptr, ptr %3, align 8, !tbaa !22
  %43 = getelementptr inbounds nuw %struct.lua_State, ptr %42, i32 0, i32 16
  store ptr %43, ptr %6, align 8, !tbaa !23
  %44 = load ptr, ptr %6, align 8, !tbaa !23
  %45 = getelementptr inbounds nuw %struct.CallInfo, ptr %44, i32 0, i32 2
  store ptr null, ptr %45, align 8, !tbaa !33
  %46 = load ptr, ptr %6, align 8, !tbaa !23
  %47 = getelementptr inbounds nuw %struct.CallInfo, ptr %46, i32 0, i32 3
  store ptr null, ptr %47, align 8, !tbaa !32
  %48 = load ptr, ptr %6, align 8, !tbaa !23
  %49 = getelementptr inbounds nuw %struct.CallInfo, ptr %48, i32 0, i32 6
  store i32 32768, ptr %49, align 4, !tbaa !55
  %50 = load ptr, ptr %3, align 8, !tbaa !22
  %51 = getelementptr inbounds nuw %struct.lua_State, ptr %50, i32 0, i32 6
  %52 = load ptr, ptr %51, align 8, !tbaa !34
  %53 = load ptr, ptr %6, align 8, !tbaa !23
  %54 = getelementptr inbounds nuw %struct.CallInfo, ptr %53, i32 0, i32 0
  store ptr %52, ptr %54, align 8, !tbaa !34
  %55 = load ptr, ptr %6, align 8, !tbaa !23
  %56 = getelementptr inbounds nuw %struct.CallInfo, ptr %55, i32 0, i32 4
  %57 = getelementptr inbounds nuw %struct.anon.0, ptr %56, i32 0, i32 0
  store ptr null, ptr %57, align 8, !tbaa !34
  %58 = load ptr, ptr %3, align 8, !tbaa !22
  %59 = getelementptr inbounds nuw %struct.lua_State, ptr %58, i32 0, i32 6
  %60 = load ptr, ptr %59, align 8, !tbaa !34
  %61 = getelementptr inbounds nuw %struct.TValue, ptr %60, i32 0, i32 1
  store i8 0, ptr %61, align 8, !tbaa !34
  %62 = load ptr, ptr %3, align 8, !tbaa !22
  %63 = getelementptr inbounds nuw %struct.lua_State, ptr %62, i32 0, i32 6
  %64 = load ptr, ptr %63, align 8, !tbaa !34
  %65 = getelementptr inbounds nuw %union.StackValue, ptr %64, i32 1
  store ptr %65, ptr %63, align 8, !tbaa !34
  %66 = load ptr, ptr %3, align 8, !tbaa !22
  %67 = getelementptr inbounds nuw %struct.lua_State, ptr %66, i32 0, i32 6
  %68 = load ptr, ptr %67, align 8, !tbaa !34
  %69 = getelementptr inbounds %union.StackValue, ptr %68, i64 20
  %70 = load ptr, ptr %6, align 8, !tbaa !23
  %71 = getelementptr inbounds nuw %struct.CallInfo, ptr %70, i32 0, i32 1
  store ptr %69, ptr %71, align 8, !tbaa !34
  %72 = load ptr, ptr %6, align 8, !tbaa !23
  %73 = load ptr, ptr %3, align 8, !tbaa !22
  %74 = getelementptr inbounds nuw %struct.lua_State, ptr %73, i32 0, i32 8
  store ptr %72, ptr %74, align 8, !tbaa !25
  call void @llvm.lifetime.end.p0(i64 8, ptr %6) #6
  call void @llvm.lifetime.end.p0(i64 4, ptr %5) #6
  ret void
}

; Function Attrs: nounwind uwtable
define internal void @preinit_thread(ptr noundef %0, ptr noundef %1) #0 {
  %3 = alloca ptr, align 8
  %4 = alloca ptr, align 8
  store ptr %0, ptr %3, align 8, !tbaa !22
  store ptr %1, ptr %4, align 8, !tbaa !4
  %5 = load ptr, ptr %4, align 8, !tbaa !4
  %6 = load ptr, ptr %3, align 8, !tbaa !22
  %7 = getelementptr inbounds nuw %struct.lua_State, ptr %6, i32 0, i32 7
  store ptr %5, ptr %7, align 8, !tbaa !37
  %8 = load ptr, ptr %3, align 8, !tbaa !22
  %9 = getelementptr inbounds nuw %struct.lua_State, ptr %8, i32 0, i32 10
  store ptr null, ptr %9, align 8, !tbaa !34
  %10 = load ptr, ptr %3, align 8, !tbaa !22
  %11 = getelementptr inbounds nuw %struct.lua_State, ptr %10, i32 0, i32 8
  store ptr null, ptr %11, align 8, !tbaa !25
  %12 = load ptr, ptr %3, align 8, !tbaa !22
  %13 = getelementptr inbounds nuw %struct.lua_State, ptr %12, i32 0, i32 5
  store i16 0, ptr %13, align 4, !tbaa !35
  %14 = load ptr, ptr %3, align 8, !tbaa !22
  %15 = load ptr, ptr %3, align 8, !tbaa !22
  %16 = getelementptr inbounds nuw %struct.lua_State, ptr %15, i32 0, i32 14
  store ptr %14, ptr %16, align 8, !tbaa !47
  %17 = load ptr, ptr %3, align 8, !tbaa !22
  %18 = getelementptr inbounds nuw %struct.lua_State, ptr %17, i32 0, i32 19
  store i32 0, ptr %18, align 8, !tbaa !36
  %19 = load ptr, ptr %3, align 8, !tbaa !22
  %20 = getelementptr inbounds nuw %struct.lua_State, ptr %19, i32 0, i32 15
  store ptr null, ptr %20, align 8, !tbaa !48
  %21 = load ptr, ptr %3, align 8, !tbaa !22
  %22 = getelementptr inbounds nuw %struct.lua_State, ptr %21, i32 0, i32 17
  store volatile ptr null, ptr %22, align 8, !tbaa !44
  %23 = load ptr, ptr %3, align 8, !tbaa !22
  %24 = getelementptr inbounds nuw %struct.lua_State, ptr %23, i32 0, i32 23
  store volatile i32 0, ptr %24, align 8, !tbaa !42
  %25 = load ptr, ptr %3, align 8, !tbaa !22
  %26 = getelementptr inbounds nuw %struct.lua_State, ptr %25, i32 0, i32 21
  store i32 0, ptr %26, align 8, !tbaa !43
  %27 = load ptr, ptr %3, align 8, !tbaa !22
  %28 = getelementptr inbounds nuw %struct.lua_State, ptr %27, i32 0, i32 4
  store i8 1, ptr %28, align 1, !tbaa !49
  %29 = load ptr, ptr %3, align 8, !tbaa !22
  %30 = getelementptr inbounds nuw %struct.lua_State, ptr %29, i32 0, i32 21
  %31 = load i32, ptr %30, align 8, !tbaa !43
  %32 = load ptr, ptr %3, align 8, !tbaa !22
  %33 = getelementptr inbounds nuw %struct.lua_State, ptr %32, i32 0, i32 22
  store i32 %31, ptr %33, align 4, !tbaa !45
  %34 = load ptr, ptr %3, align 8, !tbaa !22
  %35 = getelementptr inbounds nuw %struct.lua_State, ptr %34, i32 0, i32 11
  store ptr null, ptr %35, align 8, !tbaa !50
  %36 = load ptr, ptr %3, align 8, !tbaa !22
  %37 = getelementptr inbounds nuw %struct.lua_State, ptr %36, i32 0, i32 3
  store i8 0, ptr %37, align 2, !tbaa !51
  %38 = load ptr, ptr %3, align 8, !tbaa !22
  %39 = getelementptr inbounds nuw %struct.lua_State, ptr %38, i32 0, i32 18
  store i64 0, ptr %39, align 8, !tbaa !52
  %40 = load ptr, ptr %3, align 8, !tbaa !22
  %41 = getelementptr inbounds nuw %struct.lua_State, ptr %40, i32 0, i32 20
  store i32 0, ptr %41, align 4, !tbaa !53
  ret void
}

; Function Attrs: nounwind uwtable
define dso_local ptr @lua_newthread(ptr noundef %0) #0 {
  %2 = alloca ptr, align 8
  %3 = alloca ptr, align 8
  %4 = alloca ptr, align 8
  %5 = alloca ptr, align 8
  %6 = alloca ptr, align 8
  %7 = alloca ptr, align 8
  store ptr %0, ptr %2, align 8, !tbaa !22
  call void @llvm.lifetime.start.p0(i64 8, ptr %3) #6
  %8 = load ptr, ptr %2, align 8, !tbaa !22
  %9 = getelementptr inbounds nuw %struct.lua_State, ptr %8, i32 0, i32 7
  %10 = load ptr, ptr %9, align 8, !tbaa !37
  store ptr %10, ptr %3, align 8, !tbaa !4
  call void @llvm.lifetime.start.p0(i64 8, ptr %4) #6
  call void @llvm.lifetime.start.p0(i64 8, ptr %5) #6
  %11 = load ptr, ptr %2, align 8, !tbaa !22
  %12 = getelementptr inbounds nuw %struct.lua_State, ptr %11, i32 0, i32 7
  %13 = load ptr, ptr %12, align 8, !tbaa !37
  %14 = getelementptr inbounds nuw %struct.global_State, ptr %13, i32 0, i32 3
  %15 = load i64, ptr %14, align 8, !tbaa !21
  %16 = icmp sle i64 %15, 0
  br i1 %16, label %17, label %19

17:                                               ; preds = %1
  %18 = load ptr, ptr %2, align 8, !tbaa !22
  call void @luaC_step(ptr noundef %18)
  br label %19

19:                                               ; preds = %17, %1
  %20 = load ptr, ptr %2, align 8, !tbaa !22
  %21 = call ptr @luaC_newobjdt(ptr noundef %20, i8 noundef zeroext 8, i64 noundef 216, i64 noundef 8)
  store ptr %21, ptr %4, align 8, !tbaa !38
  %22 = load ptr, ptr %4, align 8, !tbaa !38
  store ptr %22, ptr %5, align 8, !tbaa !22
  call void @llvm.lifetime.start.p0(i64 8, ptr %6) #6
  %23 = load ptr, ptr %2, align 8, !tbaa !22
  %24 = getelementptr inbounds nuw %struct.lua_State, ptr %23, i32 0, i32 6
  %25 = load ptr, ptr %24, align 8, !tbaa !34
  store ptr %25, ptr %6, align 8, !tbaa !39
  call void @llvm.lifetime.start.p0(i64 8, ptr %7) #6
  %26 = load ptr, ptr %5, align 8, !tbaa !22
  store ptr %26, ptr %7, align 8, !tbaa !22
  %27 = load ptr, ptr %7, align 8, !tbaa !22
  %28 = load ptr, ptr %6, align 8, !tbaa !39
  %29 = getelementptr inbounds nuw %struct.TValue, ptr %28, i32 0, i32 0
  store ptr %27, ptr %29, align 8, !tbaa !34
  %30 = load ptr, ptr %6, align 8, !tbaa !39
  %31 = getelementptr inbounds nuw %struct.TValue, ptr %30, i32 0, i32 1
  store i8 72, ptr %31, align 8, !tbaa !41
  call void @llvm.lifetime.end.p0(i64 8, ptr %7) #6
  call void @llvm.lifetime.end.p0(i64 8, ptr %6) #6
  %32 = load ptr, ptr %2, align 8, !tbaa !22
  %33 = getelementptr inbounds nuw %struct.lua_State, ptr %32, i32 0, i32 6
  %34 = load ptr, ptr %33, align 8, !tbaa !34
  %35 = getelementptr inbounds nuw %union.StackValue, ptr %34, i32 1
  store ptr %35, ptr %33, align 8, !tbaa !34
  %36 = load ptr, ptr %5, align 8, !tbaa !22
  %37 = load ptr, ptr %3, align 8, !tbaa !4
  call void @preinit_thread(ptr noundef %36, ptr noundef %37)
  %38 = load ptr, ptr %2, align 8, !tbaa !22
  %39 = getelementptr inbounds nuw %struct.lua_State, ptr %38, i32 0, i32 23
  %40 = load volatile i32, ptr %39, align 8, !tbaa !42
  %41 = load ptr, ptr %5, align 8, !tbaa !22
  %42 = getelementptr inbounds nuw %struct.lua_State, ptr %41, i32 0, i32 23
  store volatile i32 %40, ptr %42, align 8, !tbaa !42
  %43 = load ptr, ptr %2, align 8, !tbaa !22
  %44 = getelementptr inbounds nuw %struct.lua_State, ptr %43, i32 0, i32 21
  %45 = load i32, ptr %44, align 8, !tbaa !43
  %46 = load ptr, ptr %5, align 8, !tbaa !22
  %47 = getelementptr inbounds nuw %struct.lua_State, ptr %46, i32 0, i32 21
  store i32 %45, ptr %47, align 8, !tbaa !43
  %48 = load ptr, ptr %2, align 8, !tbaa !22
  %49 = getelementptr inbounds nuw %struct.lua_State, ptr %48, i32 0, i32 17
  %50 = load volatile ptr, ptr %49, align 8, !tbaa !44
  %51 = load ptr, ptr %5, align 8, !tbaa !22
  %52 = getelementptr inbounds nuw %struct.lua_State, ptr %51, i32 0, i32 17
  store volatile ptr %50, ptr %52, align 8, !tbaa !44
  %53 = load ptr, ptr %5, align 8, !tbaa !22
  %54 = getelementptr inbounds nuw %struct.lua_State, ptr %53, i32 0, i32 21
  %55 = load i32, ptr %54, align 8, !tbaa !43
  %56 = load ptr, ptr %5, align 8, !tbaa !22
  %57 = getelementptr inbounds nuw %struct.lua_State, ptr %56, i32 0, i32 22
  store i32 %55, ptr %57, align 4, !tbaa !45
  %58 = load ptr, ptr %5, align 8, !tbaa !22
  %59 = getelementptr inbounds i8, ptr %58, i64 -8
  %60 = load ptr, ptr %3, align 8, !tbaa !4
  %61 = getelementptr inbounds nuw %struct.global_State, ptr %60, i32 0, i32 36
  %62 = load ptr, ptr %61, align 8, !tbaa !46
  %63 = getelementptr inbounds i8, ptr %62, i64 -8
  call void @llvm.memcpy.p0.p0.i64(ptr align 1 %59, ptr align 1 %63, i64 8, i1 false)
  %64 = load ptr, ptr %5, align 8, !tbaa !22
  %65 = load ptr, ptr %2, align 8, !tbaa !22
  call void @stack_init(ptr noundef %64, ptr noundef %65)
  %66 = load ptr, ptr %5, align 8, !tbaa !22
  call void @llvm.lifetime.end.p0(i64 8, ptr %5) #6
  call void @llvm.lifetime.end.p0(i64 8, ptr %4) #6
  call void @llvm.lifetime.end.p0(i64 8, ptr %3) #6
  ret ptr %66
}