; Function Attrs: nounwind uwtable
define dso_local ptr @lua_newthread(ptr noundef %0) local_unnamed_addr #2 {
  %2 = getelementptr inbounds nuw i8, ptr %0, i64 24
  %3 = load ptr, ptr %2, align 8, !tbaa !34
  %4 = getelementptr inbounds nuw i8, ptr %3, i64 24
  %5 = load i64, ptr %4, align 8, !tbaa !18
  %6 = icmp slt i64 %5, 1
  br i1 %6, label %7, label %8

7:                                                ; preds = %1
  tail call void @luaC_step(ptr noundef nonnull %0) #8
  br label %8

8:                                                ; preds = %7, %1
  %9 = tail call ptr @luaC_newobjdt(ptr noundef nonnull %0, i8 noundef zeroext 8, i64 noundef 216, i64 noundef 8) #8
  %10 = getelementptr inbounds nuw i8, ptr %0, i64 16
  %11 = load ptr, ptr %10, align 8, !tbaa !30
  store ptr %9, ptr %11, align 8, !tbaa !30
  %12 = getelementptr inbounds nuw i8, ptr %11, i64 8
  store i8 72, ptr %12, align 8, !tbaa !35
  %13 = load ptr, ptr %10, align 8, !tbaa !30
  %14 = getelementptr inbounds nuw i8, ptr %13, i64 16
  store ptr %14, ptr %10, align 8, !tbaa !30
  %15 = getelementptr inbounds nuw i8, ptr %9, i64 24
  store ptr %3, ptr %15, align 8, !tbaa !34
  %16 = getelementptr inbounds nuw i8, ptr %9, i64 48
  store ptr null, ptr %16, align 8, !tbaa !30
  %17 = getelementptr inbounds nuw i8, ptr %9, i64 32
  store ptr null, ptr %17, align 8, !tbaa !19
  %18 = getelementptr inbounds nuw i8, ptr %9, i64 12
  store i16 0, ptr %18, align 4, !tbaa !31
  %19 = getelementptr inbounds nuw i8, ptr %9, i64 80
  store ptr %9, ptr %19, align 8, !tbaa !36
  %20 = getelementptr inbounds nuw i8, ptr %9, i64 176
  store i32 0, ptr %20, align 8, !tbaa !32
  %21 = getelementptr inbounds nuw i8, ptr %9, i64 88
  store ptr null, ptr %21, align 8, !tbaa !37
  %22 = getelementptr inbounds nuw i8, ptr %9, i64 160
  store volatile ptr null, ptr %22, align 8, !tbaa !38
  %23 = getelementptr inbounds nuw i8, ptr %9, i64 192
  store volatile i32 0, ptr %23, align 8, !tbaa !39
  %24 = getelementptr inbounds nuw i8, ptr %9, i64 184
  store i32 0, ptr %24, align 8, !tbaa !40
  %25 = getelementptr inbounds nuw i8, ptr %9, i64 11
  store i8 1, ptr %25, align 1, !tbaa !41
  %26 = getelementptr inbounds nuw i8, ptr %9, i64 188
  %27 = getelementptr inbounds nuw i8, ptr %9, i64 56
  store ptr null, ptr %27, align 8, !tbaa !42
  %28 = getelementptr inbounds nuw i8, ptr %9, i64 10
  store i8 0, ptr %28, align 2, !tbaa !43
  %29 = getelementptr inbounds nuw i8, ptr %9, i64 168
  store i64 0, ptr %29, align 8, !tbaa !44
  %30 = getelementptr inbounds nuw i8, ptr %9, i64 180
  store i32 0, ptr %30, align 4, !tbaa !45
  %31 = getelementptr inbounds nuw i8, ptr %0, i64 192
  %32 = load volatile i32, ptr %31, align 8, !tbaa !39
  store volatile i32 %32, ptr %23, align 8, !tbaa !39
  %33 = getelementptr inbounds nuw i8, ptr %0, i64 184
  %34 = load i32, ptr %33, align 8, !tbaa !40
  store i32 %34, ptr %24, align 8, !tbaa !40
  %35 = getelementptr inbounds nuw i8, ptr %0, i64 160
  %36 = load volatile ptr, ptr %35, align 8, !tbaa !38
  store volatile ptr %36, ptr %22, align 8, !tbaa !38
  store i32 %34, ptr %26, align 4, !tbaa !46
  %37 = getelementptr inbounds i8, ptr %9, i64 -8
  %38 = getelementptr inbounds nuw i8, ptr %3, i64 264
  %39 = load ptr, ptr %38, align 8, !tbaa !47
  %40 = getelementptr inbounds i8, ptr %39, i64 -8
  %41 = load i64, ptr %40, align 1
  store i64 %41, ptr %37, align 1
  %42 = tail call ptr @luaM_malloc_(ptr noundef nonnull %0, i64 noundef 720, i32 noundef 0) #8
  store ptr %42, ptr %16, align 8, !tbaa !30
  %43 = getelementptr inbounds nuw i8, ptr %9, i64 64
  store ptr %42, ptr %43, align 8, !tbaa !30
  br label %44

44:                                               ; preds = %44, %8
  %indvars.iv.i = phi i64 [ 0, %8 ], [ %indvars.iv.next.i, %44 ]
  %45 = load ptr, ptr %16, align 8, !tbaa !30
  %46 = getelementptr inbounds nuw %union.StackValue, ptr %45, i64 %indvars.iv.i, i32 0, i32 1
  store i8 0, ptr %46, align 8, !tbaa !30
  %indvars.iv.next.i = add nuw nsw i64 %indvars.iv.i, 1
  %exitcond.not.i = icmp eq i64 %indvars.iv.next.i, 45
  br i1 %exitcond.not.i, label %stack_init.exit, label %44

stack_init.exit:                                  ; preds = %44
  %47 = load ptr, ptr %16, align 8, !tbaa !30
  %48 = getelementptr inbounds nuw i8, ptr %9, i64 16
  store ptr %47, ptr %48, align 8, !tbaa !30
  %49 = getelementptr inbounds nuw i8, ptr %47, i64 640
  %50 = getelementptr inbounds nuw i8, ptr %9, i64 40
  store ptr %49, ptr %50, align 8, !tbaa !30
  %51 = getelementptr inbounds nuw i8, ptr %9, i64 96
  %52 = getelementptr inbounds nuw i8, ptr %9, i64 112
  %53 = getelementptr inbounds nuw i8, ptr %9, i64 156
  tail call void @llvm.memset.p0.i64(ptr noundef nonnull align 8 dereferenceable(16) %52, i8 0, i64 16, i1 false)
  store i32 32768, ptr %53, align 4, !tbaa !48
  store ptr %47, ptr %51, align 8, !tbaa !30
  %54 = getelementptr inbounds nuw i8, ptr %9, i64 128
  store ptr null, ptr %54, align 8, !tbaa !30
  %55 = getelementptr inbounds nuw i8, ptr %47, i64 8
  store i8 0, ptr %55, align 8, !tbaa !30
  %56 = load ptr, ptr %48, align 8, !tbaa !30
  %57 = getelementptr inbounds nuw i8, ptr %56, i64 16
  store ptr %57, ptr %48, align 8, !tbaa !30
  %58 = getelementptr inbounds nuw i8, ptr %56, i64 336
  %59 = getelementptr inbounds nuw i8, ptr %9, i64 104
  store ptr %58, ptr %59, align 8, !tbaa !30
  store ptr %51, ptr %17, align 8, !tbaa !19
  ret ptr %9
}